target datalayout = "e-m:e-p270:32:32-p271:32:32-p272:64:64-i64:64-i128:128-f80:128-n8:16:32:64-S128"
target triple = "x86_64-pc-linux-gnu"

@.str.112 = private unnamed_addr constant [24 x i8] c"TwoFrameSatValue = %d.\0A\00", align 1

; Function Attrs: nounwind uwtable
define void @Abc_NtkDarConstrProfile(ptr noundef %0, i32 noundef %1) #0 {
  %3 = alloca ptr, align 8
  %4 = alloca i32, align 4
  %5 = alloca ptr, align 8
  store ptr %0, ptr %3, align 8
  store i32 %1, ptr %4, align 4
  %6 = load ptr, ptr %3, align 8
  %7 = call ptr @Abc_NtkToDar(ptr noundef %6, i32 noundef 0, i32 noundef 1)
  store ptr %7, ptr %5, align 8
  %8 = load ptr, ptr %5, align 8
  %9 = icmp eq ptr %8, null
  br i1 %9, label %10, label %11

10:                                               ; preds = %2
  br label %17

11:                                               ; preds = %2
  %12 = load ptr, ptr %5, align 8
  %13 = call i32 @Ssw_ManProfileConstraints(ptr noundef %12, i32 noundef 16, i32 noundef 64, i32 noundef 1)
  %14 = load ptr, ptr %5, align 8
  %15 = call i32 @Ssw_ManSetConstrPhases(ptr noundef %14, i32 noundef 2, ptr noundef null)
  call void (i32, ptr, ...) @Abc_Print(i32 noundef 1, ptr noundef @.str.112, i32 noundef %15)
  %16 = load ptr, ptr %5, align 8
  call void @Aig_ManStop(ptr noundef %16)
  br label %17

17:                                               ; preds = %11, %10
  ret void
}