; Function Attrs: nounwind uwtable
define void @Abc_NtkDarConstrProfile(ptr noundef %0, i32 noundef %1) local_unnamed_addr #1 {
  %3 = tail call ptr @Abc_NtkToDar(ptr noundef %0, i32 noundef 0, i32 noundef 1)
  %4 = icmp eq ptr %3, null
  br i1 %4, label %8, label %5

5:                                                ; preds = %2
  %6 = tail call i32 @Ssw_ManProfileConstraints(ptr noundef nonnull %3, i32 noundef 16, i32 noundef 64, i32 noundef 1) #19
  %7 = tail call i32 @Ssw_ManSetConstrPhases(ptr noundef nonnull %3, i32 noundef 2, ptr noundef null) #19
  tail call void (i32, ptr, ...) @Abc_Print(i32 poison, ptr noundef nonnull @.str.112, i32 noundef %7)
  tail call void @Aig_ManStop(ptr noundef nonnull %3) #19
  br label %8

8:                                                ; preds = %2, %5
  ret void
}